; Listing generated by Microsoft (R) Optimizing Compiler Version 18.00.31101.0 

include listing.inc

INCLUDELIB OLDNAMES

PUBLIC	z_errmsg
PUBLIC	??_C@_0BA@MOKMMFOD@need?5dictionary?$AA@	; `string'
PUBLIC	??_C@_0L@FNAOCBOG@stream?5end?$AA@		; `string'
PUBLIC	??_C@_0L@KIJFAKBJ@file?5error?$AA@		; `string'
PUBLIC	??_C@_0N@MKKNPMJD@stream?5error?$AA@		; `string'
PUBLIC	??_C@_0L@HAHMBNLP@data?5error?$AA@		; `string'
PUBLIC	??_C@_0BE@OGGJBMCE@insufficient?5memory?$AA@	; `string'
PUBLIC	??_C@_0N@DFPGLBGC@buffer?5error?$AA@		; `string'
PUBLIC	??_C@_0BF@CJFPCCEG@incompatible?5version?$AA@	; `string'
;	COMDAT ??_C@_0BF@CJFPCCEG@incompatible?5version?$AA@
CONST	SEGMENT
??_C@_0BF@CJFPCCEG@incompatible?5version?$AA@ DB 'incompatible version', 00H ; `string'
CONST	ENDS
;	COMDAT ??_C@_0N@DFPGLBGC@buffer?5error?$AA@
CONST	SEGMENT
??_C@_0N@DFPGLBGC@buffer?5error?$AA@ DB 'buffer error', 00H ; `string'
CONST	ENDS
;	COMDAT ??_C@_0BE@OGGJBMCE@insufficient?5memory?$AA@
CONST	SEGMENT
??_C@_0BE@OGGJBMCE@insufficient?5memory?$AA@ DB 'insufficient memory', 00H ; `string'
CONST	ENDS
;	COMDAT ??_C@_0L@HAHMBNLP@data?5error?$AA@
CONST	SEGMENT
??_C@_0L@HAHMBNLP@data?5error?$AA@ DB 'data error', 00H	; `string'
CONST	ENDS
;	COMDAT ??_C@_0N@MKKNPMJD@stream?5error?$AA@
CONST	SEGMENT
??_C@_0N@MKKNPMJD@stream?5error?$AA@ DB 'stream error', 00H ; `string'
CONST	ENDS
;	COMDAT ??_C@_0L@KIJFAKBJ@file?5error?$AA@
CONST	SEGMENT
??_C@_0L@KIJFAKBJ@file?5error?$AA@ DB 'file error', 00H	; `string'
CONST	ENDS
;	COMDAT ??_C@_0L@FNAOCBOG@stream?5end?$AA@
CONST	SEGMENT
??_C@_0L@FNAOCBOG@stream?5end?$AA@ DB 'stream end', 00H	; `string'
CONST	ENDS
;	COMDAT ??_C@_0BA@MOKMMFOD@need?5dictionary?$AA@
CONST	SEGMENT
??_C@_0BA@MOKMMFOD@need?5dictionary?$AA@ DB 'need dictionary', 00H ; `string'
	ORG $+15
z_errmsg DQ	FLAT:??_C@_0BA@MOKMMFOD@need?5dictionary?$AA@
	DQ	FLAT:??_C@_0L@FNAOCBOG@stream?5end?$AA@
	DQ	FLAT:??_C@_00CNPNBAHC@?$AA@
	DQ	FLAT:??_C@_0L@KIJFAKBJ@file?5error?$AA@
	DQ	FLAT:??_C@_0N@MKKNPMJD@stream?5error?$AA@
	DQ	FLAT:??_C@_0L@HAHMBNLP@data?5error?$AA@
	DQ	FLAT:??_C@_0BE@OGGJBMCE@insufficient?5memory?$AA@
	DQ	FLAT:??_C@_0N@DFPGLBGC@buffer?5error?$AA@
	DQ	FLAT:??_C@_0BF@CJFPCCEG@incompatible?5version?$AA@
	DQ	FLAT:??_C@_00CNPNBAHC@?$AA@
PUBLIC	zError
PUBLIC	zlibCompileFlags
PUBLIC	zlibVersion
PUBLIC	zcfree
PUBLIC	zcalloc
; Function compile flags: /Ogtpy
; File d:\projectsgit\gamecode4\source\gcc4\3rdparty\zlib-1.2.8\zutil.c
;	COMDAT zcalloc
_TEXT	SEGMENT
opaque$ = 8
items$ = 16
size$ = 24
zcalloc	PROC						; COMDAT

; 309  :     if (opaque) items += size - size; /* make compiler happy */
; 310  :     return sizeof(uInt) > 2 ? (voidpf)malloc(items * size) :
; 311  :                               (voidpf)calloc(items, size);

  00000	41 0f af d0	 imul	 edx, r8d
  00004	8b ca		 mov	 ecx, edx
  00006	48 ff 25 00 00
	00 00		 rex_jmp QWORD PTR __imp_malloc
zcalloc	ENDP
_TEXT	ENDS
; Function compile flags: /Ogtpy
; File d:\projectsgit\gamecode4\source\gcc4\3rdparty\zlib-1.2.8\zutil.c
;	COMDAT zcfree
_TEXT	SEGMENT
opaque$ = 8
ptr$ = 16
zcfree	PROC						; COMDAT

; 318  :     free(ptr);

  00000	48 8b ca	 mov	 rcx, rdx
  00003	48 ff 25 00 00
	00 00		 rex_jmp QWORD PTR __imp_free
zcfree	ENDP
_TEXT	ENDS
; Function compile flags: /Ogtpy
; File d:\projectsgit\gamecode4\source\gcc4\3rdparty\zlib-1.2.8\zutil.c
;	COMDAT zlibVersion
_TEXT	SEGMENT
zlibVersion PROC					; COMDAT

; 32   :     return ZLIB_VERSION;

  00000	48 8d 05 00 00
	00 00		 lea	 rax, OFFSET FLAT:??_C@_05IAIEPMAK@1?42?48?$AA@

; 33   : }

  00007	c3		 ret	 0
zlibVersion ENDP
_TEXT	ENDS
; Function compile flags: /Ogtpy
; File d:\projectsgit\gamecode4\source\gcc4\3rdparty\zlib-1.2.8\zutil.c
;	COMDAT zlibCompileFlags
_TEXT	SEGMENT
zlibCompileFlags PROC					; COMDAT

; 37   :     uLong flags;
; 38   : 
; 39   :     flags = 0;
; 40   :     switch ((int)(sizeof(uInt))) {
; 41   :     case 2:     break;
; 42   :     case 4:     flags += 1;     break;
; 43   :     case 8:     flags += 2;     break;
; 44   :     default:    flags += 3;
; 45   :     }
; 46   :     switch ((int)(sizeof(uLong))) {
; 47   :     case 2:     break;
; 48   :     case 4:     flags += 1 << 2;        break;
; 49   :     case 8:     flags += 2 << 2;        break;
; 50   :     default:    flags += 3 << 2;
; 51   :     }
; 52   :     switch ((int)(sizeof(voidpf))) {
; 53   :     case 2:     break;
; 54   :     case 4:     flags += 1 << 4;        break;
; 55   :     case 8:     flags += 2 << 4;        break;
; 56   :     default:    flags += 3 << 4;
; 57   :     }
; 58   :     switch ((int)(sizeof(z_off_t))) {
; 59   :     case 2:     break;
; 60   :     case 4:     flags += 1 << 6;        break;
; 61   :     case 8:     flags += 2 << 6;        break;
; 62   :     default:    flags += 3 << 6;
; 63   :     }
; 64   : #ifdef DEBUG
; 65   :     flags += 1 << 8;
; 66   : #endif
; 67   : #if defined(ASMV) || defined(ASMINF)
; 68   :     flags += 1 << 9;
; 69   : #endif
; 70   : #ifdef ZLIB_WINAPI
; 71   :     flags += 1 << 10;
; 72   : #endif
; 73   : #ifdef BUILDFIXED
; 74   :     flags += 1 << 12;
; 75   : #endif
; 76   : #ifdef DYNAMIC_CRC_TABLE
; 77   :     flags += 1 << 13;
; 78   : #endif
; 79   : #ifdef NO_GZCOMPRESS
; 80   :     flags += 1L << 16;
; 81   : #endif
; 82   : #ifdef NO_GZIP
; 83   :     flags += 1L << 17;
; 84   : #endif
; 85   : #ifdef PKZIP_BUG_WORKAROUND
; 86   :     flags += 1L << 20;
; 87   : #endif
; 88   : #ifdef FASTEST
; 89   :     flags += 1L << 21;
; 90   : #endif
; 91   : #if defined(STDC) || defined(Z_HAVE_STDARG_H)
; 92   : #  ifdef NO_vsnprintf
; 93   :     flags += 1L << 25;
; 94   : #    ifdef HAS_vsprintf_void
; 95   :     flags += 1L << 26;
; 96   : #    endif
; 97   : #  else
; 98   : #    ifdef HAS_vsnprintf_void
; 99   :     flags += 1L << 26;
; 100  : #    endif
; 101  : #  endif
; 102  : #else
; 103  :     flags += 1L << 24;
; 104  : #  ifdef NO_snprintf
; 105  :     flags += 1L << 25;
; 106  : #    ifdef HAS_sprintf_void
; 107  :     flags += 1L << 26;
; 108  : #    endif
; 109  : #  else
; 110  : #    ifdef HAS_snprintf_void
; 111  :     flags += 1L << 26;
; 112  : #    endif
; 113  : #  endif
; 114  : #endif
; 115  :     return flags;

  00000	b8 65 06 00 00	 mov	 eax, 1637		; 00000665H

; 116  : }

  00005	c3		 ret	 0
zlibCompileFlags ENDP
_TEXT	ENDS
; Function compile flags: /Ogtpy
; File d:\projectsgit\gamecode4\source\gcc4\3rdparty\zlib-1.2.8\zutil.c
;	COMDAT zError
_TEXT	SEGMENT
err$ = 8
zError	PROC						; COMDAT

; 139  :     return ERR_MSG(err);

  00000	48 63 d1	 movsxd	 rdx, ecx
  00003	48 8d 05 10 00
	00 00		 lea	 rax, OFFSET FLAT:z_errmsg+16
  0000a	48 c1 e2 03	 shl	 rdx, 3
  0000e	48 2b c2	 sub	 rax, rdx
  00011	48 8b 00	 mov	 rax, QWORD PTR [rax]

; 140  : }

  00014	c3		 ret	 0
zError	ENDP
_TEXT	ENDS
END
