; Listing generated by Microsoft (R) Optimizing Compiler Version 18.00.31101.0 

	TITLE	D:\ProjectsGit\gamecode4\Source\GCC4\3rdParty\zlib-1.2.8\zutil.c
	.686P
	.XMM
	include listing.inc
	.model	flat

INCLUDELIB LIBCMTD
INCLUDELIB OLDNAMES

PUBLIC	_z_errmsg
PUBLIC	??_C@_0BA@MOKMMFOD@need?5dictionary?$AA@	; `string'
PUBLIC	??_C@_0L@FNAOCBOG@stream?5end?$AA@		; `string'
PUBLIC	??_C@_00CNPNBAHC@?$AA@				; `string'
PUBLIC	??_C@_0L@KIJFAKBJ@file?5error?$AA@		; `string'
PUBLIC	??_C@_0N@MKKNPMJD@stream?5error?$AA@		; `string'
PUBLIC	??_C@_0L@HAHMBNLP@data?5error?$AA@		; `string'
PUBLIC	??_C@_0BE@OGGJBMCE@insufficient?5memory?$AA@	; `string'
PUBLIC	??_C@_0N@DFPGLBGC@buffer?5error?$AA@		; `string'
PUBLIC	??_C@_0BF@CJFPCCEG@incompatible?5version?$AA@	; `string'
;	COMDAT ??_C@_0BF@CJFPCCEG@incompatible?5version?$AA@
CONST	SEGMENT
??_C@_0BF@CJFPCCEG@incompatible?5version?$AA@ DB 'incompatible version', 00H ; `string'
CONST	ENDS
;	COMDAT ??_C@_0N@DFPGLBGC@buffer?5error?$AA@
CONST	SEGMENT
??_C@_0N@DFPGLBGC@buffer?5error?$AA@ DB 'buffer error', 00H ; `string'
CONST	ENDS
;	COMDAT ??_C@_0BE@OGGJBMCE@insufficient?5memory?$AA@
CONST	SEGMENT
??_C@_0BE@OGGJBMCE@insufficient?5memory?$AA@ DB 'insufficient memory', 00H ; `string'
CONST	ENDS
;	COMDAT ??_C@_0L@HAHMBNLP@data?5error?$AA@
CONST	SEGMENT
??_C@_0L@HAHMBNLP@data?5error?$AA@ DB 'data error', 00H	; `string'
CONST	ENDS
;	COMDAT ??_C@_0N@MKKNPMJD@stream?5error?$AA@
CONST	SEGMENT
??_C@_0N@MKKNPMJD@stream?5error?$AA@ DB 'stream error', 00H ; `string'
CONST	ENDS
;	COMDAT ??_C@_0L@KIJFAKBJ@file?5error?$AA@
CONST	SEGMENT
??_C@_0L@KIJFAKBJ@file?5error?$AA@ DB 'file error', 00H	; `string'
CONST	ENDS
;	COMDAT ??_C@_00CNPNBAHC@?$AA@
CONST	SEGMENT
??_C@_00CNPNBAHC@?$AA@ DB 00H				; `string'
CONST	ENDS
;	COMDAT ??_C@_0L@FNAOCBOG@stream?5end?$AA@
CONST	SEGMENT
??_C@_0L@FNAOCBOG@stream?5end?$AA@ DB 'stream end', 00H	; `string'
CONST	ENDS
;	COMDAT ??_C@_0BA@MOKMMFOD@need?5dictionary?$AA@
CONST	SEGMENT
??_C@_0BA@MOKMMFOD@need?5dictionary?$AA@ DB 'need dictionary', 00H ; `string'
CONST	ENDS
CONST	SEGMENT
_z_errmsg DD	FLAT:??_C@_0BA@MOKMMFOD@need?5dictionary?$AA@
	DD	FLAT:??_C@_0L@FNAOCBOG@stream?5end?$AA@
	DD	FLAT:??_C@_00CNPNBAHC@?$AA@
	DD	FLAT:??_C@_0L@KIJFAKBJ@file?5error?$AA@
	DD	FLAT:??_C@_0N@MKKNPMJD@stream?5error?$AA@
	DD	FLAT:??_C@_0L@HAHMBNLP@data?5error?$AA@
	DD	FLAT:??_C@_0BE@OGGJBMCE@insufficient?5memory?$AA@
	DD	FLAT:??_C@_0N@DFPGLBGC@buffer?5error?$AA@
	DD	FLAT:??_C@_0BF@CJFPCCEG@incompatible?5version?$AA@
	DD	FLAT:??_C@_00CNPNBAHC@?$AA@
CONST	ENDS
PUBLIC	_zlibVersion@0
PUBLIC	_zlibCompileFlags@0
PUBLIC	_zError@4
PUBLIC	_zcalloc
PUBLIC	_zcfree
PUBLIC	??_C@_05IAIEPMAK@1?42?48?$AA@			; `string'
EXTRN	_free:PROC
EXTRN	_malloc:PROC
;	COMDAT ??_C@_05IAIEPMAK@1?42?48?$AA@
CONST	SEGMENT
??_C@_05IAIEPMAK@1?42?48?$AA@ DB '1.2.8', 00H		; `string'
CONST	ENDS
; Function compile flags: /Odtp /ZI
; File d:\projectsgit\gamecode4\source\gcc4\3rdparty\zlib-1.2.8\zutil.c
;	COMDAT _zcfree
_TEXT	SEGMENT
_opaque$ = 8						; size = 4
_ptr$ = 12						; size = 4
_zcfree	PROC						; COMDAT

; 317  : {

	push	ebp
	mov	ebp, esp
	sub	esp, 64					; 00000040H
	push	ebx
	push	esi
	push	edi

; 318  :     free(ptr);

	mov	eax, DWORD PTR _ptr$[ebp]
	push	eax
	call	_free
	add	esp, 4

; 319  :     if (opaque) return; /* make compiler happy */
; 320  : }

	pop	edi
	pop	esi
	pop	ebx
	mov	esp, ebp
	pop	ebp
	ret	0
_zcfree	ENDP
_TEXT	ENDS
; Function compile flags: /Odtp /ZI
; File d:\projectsgit\gamecode4\source\gcc4\3rdparty\zlib-1.2.8\zutil.c
;	COMDAT _zcalloc
_TEXT	SEGMENT
_opaque$ = 8						; size = 4
_items$ = 12						; size = 4
_size$ = 16						; size = 4
_zcalloc PROC						; COMDAT

; 308  : {

	push	ebp
	mov	ebp, esp
	sub	esp, 64					; 00000040H
	push	ebx
	push	esi
	push	edi

; 309  :     if (opaque) items += size - size; /* make compiler happy */

	cmp	DWORD PTR _opaque$[ebp], 0
	je	SHORT $LN1@zcalloc
	mov	eax, DWORD PTR _size$[ebp]
	sub	eax, DWORD PTR _size$[ebp]
	add	eax, DWORD PTR _items$[ebp]
	mov	DWORD PTR _items$[ebp], eax
$LN1@zcalloc:

; 310  :     return sizeof(uInt) > 2 ? (voidpf)malloc(items * size) :
; 311  :                               (voidpf)calloc(items, size);

	mov	eax, DWORD PTR _items$[ebp]
	imul	eax, DWORD PTR _size$[ebp]
	push	eax
	call	_malloc
	add	esp, 4

; 312  : }

	pop	edi
	pop	esi
	pop	ebx
	mov	esp, ebp
	pop	ebp
	ret	0
_zcalloc ENDP
_TEXT	ENDS
; Function compile flags: /Odtp /ZI
; File d:\projectsgit\gamecode4\source\gcc4\3rdparty\zlib-1.2.8\zutil.c
;	COMDAT _zError@4
_TEXT	SEGMENT
_err$ = 8						; size = 4
_zError@4 PROC						; COMDAT

; 138  : {

	push	ebp
	mov	ebp, esp
	sub	esp, 64					; 00000040H
	push	ebx
	push	esi
	push	edi

; 139  :     return ERR_MSG(err);

	mov	eax, 2
	sub	eax, DWORD PTR _err$[ebp]
	mov	eax, DWORD PTR _z_errmsg[eax*4]

; 140  : }

	pop	edi
	pop	esi
	pop	ebx
	mov	esp, ebp
	pop	ebp
	ret	4
_zError@4 ENDP
_TEXT	ENDS
; Function compile flags: /Odtp /ZI
; File d:\projectsgit\gamecode4\source\gcc4\3rdparty\zlib-1.2.8\zutil.c
;	COMDAT _zlibCompileFlags@0
_TEXT	SEGMENT
tv85 = -72						; size = 4
tv78 = -72						; size = 4
tv71 = -72						; size = 4
tv64 = -72						; size = 4
_flags$ = -4						; size = 4
_zlibCompileFlags@0 PROC				; COMDAT

; 36   : {

	push	ebp
	mov	ebp, esp
	sub	esp, 72					; 00000048H
	push	ebx
	push	esi
	push	edi

; 37   :     uLong flags;
; 38   : 
; 39   :     flags = 0;

	mov	DWORD PTR _flags$[ebp], 0

; 40   :     switch ((int)(sizeof(uInt))) {

	mov	DWORD PTR tv64[ebp], 4
	cmp	DWORD PTR tv64[ebp], 2
	je	SHORT $LN22@zlibCompil
	cmp	DWORD PTR tv64[ebp], 4
	je	SHORT $LN21@zlibCompil
	cmp	DWORD PTR tv64[ebp], 8
	je	SHORT $LN20@zlibCompil
	jmp	SHORT $LN19@zlibCompil
$LN22@zlibCompil:

; 41   :     case 2:     break;

	jmp	SHORT $LN23@zlibCompil
$LN21@zlibCompil:

; 42   :     case 4:     flags += 1;     break;

	mov	eax, DWORD PTR _flags$[ebp]
	add	eax, 1
	mov	DWORD PTR _flags$[ebp], eax
	jmp	SHORT $LN23@zlibCompil
$LN20@zlibCompil:

; 43   :     case 8:     flags += 2;     break;

	mov	eax, DWORD PTR _flags$[ebp]
	add	eax, 2
	mov	DWORD PTR _flags$[ebp], eax
	jmp	SHORT $LN23@zlibCompil
$LN19@zlibCompil:

; 44   :     default:    flags += 3;

	mov	eax, DWORD PTR _flags$[ebp]
	add	eax, 3
	mov	DWORD PTR _flags$[ebp], eax
$LN23@zlibCompil:

; 45   :     }
; 46   :     switch ((int)(sizeof(uLong))) {

	mov	DWORD PTR tv71[ebp], 4
	cmp	DWORD PTR tv71[ebp], 2
	je	SHORT $LN16@zlibCompil
	cmp	DWORD PTR tv71[ebp], 4
	je	SHORT $LN15@zlibCompil
	cmp	DWORD PTR tv71[ebp], 8
	je	SHORT $LN14@zlibCompil
	jmp	SHORT $LN13@zlibCompil
$LN16@zlibCompil:

; 47   :     case 2:     break;

	jmp	SHORT $LN17@zlibCompil
$LN15@zlibCompil:

; 48   :     case 4:     flags += 1 << 2;        break;

	mov	eax, DWORD PTR _flags$[ebp]
	add	eax, 4
	mov	DWORD PTR _flags$[ebp], eax
	jmp	SHORT $LN17@zlibCompil
$LN14@zlibCompil:

; 49   :     case 8:     flags += 2 << 2;        break;

	mov	eax, DWORD PTR _flags$[ebp]
	add	eax, 8
	mov	DWORD PTR _flags$[ebp], eax
	jmp	SHORT $LN17@zlibCompil
$LN13@zlibCompil:

; 50   :     default:    flags += 3 << 2;

	mov	eax, DWORD PTR _flags$[ebp]
	add	eax, 12					; 0000000cH
	mov	DWORD PTR _flags$[ebp], eax
$LN17@zlibCompil:

; 51   :     }
; 52   :     switch ((int)(sizeof(voidpf))) {

	mov	DWORD PTR tv78[ebp], 4
	cmp	DWORD PTR tv78[ebp], 2
	je	SHORT $LN10@zlibCompil
	cmp	DWORD PTR tv78[ebp], 4
	je	SHORT $LN9@zlibCompil
	cmp	DWORD PTR tv78[ebp], 8
	je	SHORT $LN8@zlibCompil
	jmp	SHORT $LN7@zlibCompil
$LN10@zlibCompil:

; 53   :     case 2:     break;

	jmp	SHORT $LN11@zlibCompil
$LN9@zlibCompil:

; 54   :     case 4:     flags += 1 << 4;        break;

	mov	eax, DWORD PTR _flags$[ebp]
	add	eax, 16					; 00000010H
	mov	DWORD PTR _flags$[ebp], eax
	jmp	SHORT $LN11@zlibCompil
$LN8@zlibCompil:

; 55   :     case 8:     flags += 2 << 4;        break;

	mov	eax, DWORD PTR _flags$[ebp]
	add	eax, 32					; 00000020H
	mov	DWORD PTR _flags$[ebp], eax
	jmp	SHORT $LN11@zlibCompil
$LN7@zlibCompil:

; 56   :     default:    flags += 3 << 4;

	mov	eax, DWORD PTR _flags$[ebp]
	add	eax, 48					; 00000030H
	mov	DWORD PTR _flags$[ebp], eax
$LN11@zlibCompil:

; 57   :     }
; 58   :     switch ((int)(sizeof(z_off_t))) {

	mov	DWORD PTR tv85[ebp], 4
	cmp	DWORD PTR tv85[ebp], 2
	je	SHORT $LN4@zlibCompil
	cmp	DWORD PTR tv85[ebp], 4
	je	SHORT $LN3@zlibCompil
	cmp	DWORD PTR tv85[ebp], 8
	je	SHORT $LN2@zlibCompil
	jmp	SHORT $LN1@zlibCompil
$LN4@zlibCompil:

; 59   :     case 2:     break;

	jmp	SHORT $LN5@zlibCompil
$LN3@zlibCompil:

; 60   :     case 4:     flags += 1 << 6;        break;

	mov	eax, DWORD PTR _flags$[ebp]
	add	eax, 64					; 00000040H
	mov	DWORD PTR _flags$[ebp], eax
	jmp	SHORT $LN5@zlibCompil
$LN2@zlibCompil:

; 61   :     case 8:     flags += 2 << 6;        break;

	mov	eax, DWORD PTR _flags$[ebp]
	add	eax, 128				; 00000080H
	mov	DWORD PTR _flags$[ebp], eax
	jmp	SHORT $LN5@zlibCompil
$LN1@zlibCompil:

; 62   :     default:    flags += 3 << 6;

	mov	eax, DWORD PTR _flags$[ebp]
	add	eax, 192				; 000000c0H
	mov	DWORD PTR _flags$[ebp], eax
$LN5@zlibCompil:

; 63   :     }
; 64   : #ifdef DEBUG
; 65   :     flags += 1 << 8;
; 66   : #endif
; 67   : #if defined(ASMV) || defined(ASMINF)
; 68   :     flags += 1 << 9;

	mov	eax, DWORD PTR _flags$[ebp]
	add	eax, 512				; 00000200H
	mov	DWORD PTR _flags$[ebp], eax

; 69   : #endif
; 70   : #ifdef ZLIB_WINAPI
; 71   :     flags += 1 << 10;

	mov	eax, DWORD PTR _flags$[ebp]
	add	eax, 1024				; 00000400H
	mov	DWORD PTR _flags$[ebp], eax

; 72   : #endif
; 73   : #ifdef BUILDFIXED
; 74   :     flags += 1 << 12;
; 75   : #endif
; 76   : #ifdef DYNAMIC_CRC_TABLE
; 77   :     flags += 1 << 13;
; 78   : #endif
; 79   : #ifdef NO_GZCOMPRESS
; 80   :     flags += 1L << 16;
; 81   : #endif
; 82   : #ifdef NO_GZIP
; 83   :     flags += 1L << 17;
; 84   : #endif
; 85   : #ifdef PKZIP_BUG_WORKAROUND
; 86   :     flags += 1L << 20;
; 87   : #endif
; 88   : #ifdef FASTEST
; 89   :     flags += 1L << 21;
; 90   : #endif
; 91   : #if defined(STDC) || defined(Z_HAVE_STDARG_H)
; 92   : #  ifdef NO_vsnprintf
; 93   :     flags += 1L << 25;
; 94   : #    ifdef HAS_vsprintf_void
; 95   :     flags += 1L << 26;
; 96   : #    endif
; 97   : #  else
; 98   : #    ifdef HAS_vsnprintf_void
; 99   :     flags += 1L << 26;
; 100  : #    endif
; 101  : #  endif
; 102  : #else
; 103  :     flags += 1L << 24;
; 104  : #  ifdef NO_snprintf
; 105  :     flags += 1L << 25;
; 106  : #    ifdef HAS_sprintf_void
; 107  :     flags += 1L << 26;
; 108  : #    endif
; 109  : #  else
; 110  : #    ifdef HAS_snprintf_void
; 111  :     flags += 1L << 26;
; 112  : #    endif
; 113  : #  endif
; 114  : #endif
; 115  :     return flags;

	mov	eax, DWORD PTR _flags$[ebp]

; 116  : }

	pop	edi
	pop	esi
	pop	ebx
	mov	esp, ebp
	pop	ebp
	ret	0
_zlibCompileFlags@0 ENDP
_TEXT	ENDS
; Function compile flags: /Odtp /ZI
; File d:\projectsgit\gamecode4\source\gcc4\3rdparty\zlib-1.2.8\zutil.c
;	COMDAT _zlibVersion@0
_TEXT	SEGMENT
_zlibVersion@0 PROC					; COMDAT

; 31   : {

	push	ebp
	mov	ebp, esp
	sub	esp, 64					; 00000040H
	push	ebx
	push	esi
	push	edi

; 32   :     return ZLIB_VERSION;

	mov	eax, OFFSET ??_C@_05IAIEPMAK@1?42?48?$AA@

; 33   : }

	pop	edi
	pop	esi
	pop	ebx
	mov	esp, ebp
	pop	ebp
	ret	0
_zlibVersion@0 ENDP
_TEXT	ENDS
END
